target datalayout = "e-m:e-p270:32:32-p271:32:32-p272:64:64-i64:64-i128:128-f80:128-n8:16:32:64-S128"
target triple = "x86_64-pc-linux-gnu"

%struct.alts_iovec_record_protocol = type { ptr, ptr, i64, i8, i8 }

; Function Attrs: mustprogress uwtable
define void @_Z34alts_iovec_record_protocol_destroyP26alts_iovec_record_protocol(ptr noundef %0) #2 {
  %2 = alloca ptr, align 8
  store ptr %0, ptr %2, align 8, !tbaa !3
  %3 = load ptr, ptr %2, align 8, !tbaa !3
  %4 = icmp ne ptr %3, null
  br i1 %4, label %5, label %13

5:                                                ; preds = %1
  %6 = load ptr, ptr %2, align 8, !tbaa !3
  %7 = getelementptr inbounds nuw %struct.alts_iovec_record_protocol, ptr %6, i32 0, i32 0
  %8 = load ptr, ptr %7, align 8, !tbaa !31
  call void @_Z20alts_counter_destroyP12alts_counter(ptr noundef %8)
  %9 = load ptr, ptr %2, align 8, !tbaa !3
  %10 = getelementptr inbounds nuw %struct.alts_iovec_record_protocol, ptr %9, i32 0, i32 1
  %11 = load ptr, ptr %10, align 8, !tbaa !30
  call void @_Z25gsec_aead_crypter_destroyP17gsec_aead_crypter(ptr noundef %11)
  %12 = load ptr, ptr %2, align 8, !tbaa !3
  call void @gpr_free(ptr noundef %12)
  br label %13

13:                                               ; preds = %5, %1
  ret void
}