; Function Attrs: mustprogress uwtable
define void @_Z34alts_iovec_record_protocol_destroyP26alts_iovec_record_protocol(ptr noundef %0) local_unnamed_addr #3 {
  %.not = icmp eq ptr %0, null
  br i1 %.not, label %6, label %2

2:                                                ; preds = %1
  %3 = load ptr, ptr %0, align 8, !tbaa !26
  tail call void @_Z20alts_counter_destroyP12alts_counter(ptr noundef %3)
  %4 = getelementptr inbounds nuw i8, ptr %0, i64 8
  %5 = load ptr, ptr %4, align 8, !tbaa !25
  tail call void @_Z25gsec_aead_crypter_destroyP17gsec_aead_crypter(ptr noundef %5)
  tail call void @gpr_free(ptr noundef nonnull %0)
  br label %6

6:                                                ; preds = %2, %1
  ret void
}